; Function Attrs: mustprogress uwtable
define void @_ZN3gmx26TrajectoryAnalysisSettings11setHelpTextERKNS_8ArrayRefIKPKcEE(ptr nocapture noundef nonnull readonly align 8 dereferenceable(8) %0, ptr noundef nonnull align 1 %1) local_unnamed_addr #0 align 2 {
  %3 = load ptr, ptr %0, align 8
  %4 = getelementptr inbounds i8, ptr %3, i64 40
  %5 = load ptr, ptr %4, align 8
  %.not = icmp eq ptr %5, null
  br i1 %.not, label %6, label %7

6:                                                ; preds = %2
  tail call void @_ZN3gmx8internal13assertHandlerEPKcS2_S2_S2_i(ptr noundef nonnull @.str, ptr noundef nonnull @.str.1, ptr noundef nonnull @"__PRETTY_FUNCTION__._ZZN3gmx26TrajectoryAnalysisSettings11setHelpTextERKNS_8ArrayRefIKPKcEEENK3$_0clEv", ptr noundef nonnull @.str.2, i32 noundef 156) #12
  unreachable

7:                                                ; preds = %2
  %8 = load ptr, ptr %5, align 8
  %9 = load ptr, ptr %8, align 8
  tail call void %9(ptr noundef nonnull align 8 dereferenceable(8) %5, ptr noundef nonnull align 1 %1)
  ret void
}